; Function Attrs: nounwind uwtable
define hidden void @zif_hash_equals(ptr noundef readonly captures(none) %0, ptr noundef writeonly captures(none) %1) #0 {
  %3 = alloca ptr, align 8
  %4 = alloca ptr, align 8
  call void @llvm.lifetime.start.p0(i64 8, ptr nonnull %3) #16
  call void @llvm.lifetime.start.p0(i64 8, ptr nonnull %4) #16
  %5 = getelementptr inbounds nuw i8, ptr %0, i64 44
  %6 = load i32, ptr %5, align 4, !tbaa !4
  %7 = call i32 (i32, ptr, ...) @zend_parse_parameters(i32 noundef %6, ptr noundef nonnull @.str.23, ptr noundef nonnull %3, ptr noundef nonnull %4) #16
  %8 = icmp eq i32 %7, -1
  br i1 %8, label %9, label %12

9:                                                ; preds = %2
  %10 = load ptr, ptr getelementptr inbounds nuw (i8, ptr @executor_globals, i64 960), align 8, !tbaa !47
  %11 = icmp ne ptr %10, null
  call void @llvm.assume(i1 %11)
  br label %35

12:                                               ; preds = %2
  %13 = load ptr, ptr %3, align 8, !tbaa !88
  %14 = getelementptr inbounds nuw i8, ptr %13, i64 8
  %15 = load i8, ptr %14, align 8, !tbaa !4
  %.not = icmp eq i8 %15, 6
  br i1 %.not, label %20, label %16

16:                                               ; preds = %12
  %17 = call ptr @zend_zval_value_name(ptr noundef nonnull %13) #16
  call void (i32, ptr, ...) @zend_argument_type_error(i32 noundef 1, ptr noundef nonnull @.str.24, ptr noundef %17) #16
  %18 = load ptr, ptr getelementptr inbounds nuw (i8, ptr @executor_globals, i64 960), align 8, !tbaa !47
  %19 = icmp ne ptr %18, null
  call void @llvm.assume(i1 %19)
  br label %35

20:                                               ; preds = %12
  %21 = load ptr, ptr %4, align 8, !tbaa !88
  %22 = getelementptr inbounds nuw i8, ptr %21, i64 8
  %23 = load i8, ptr %22, align 8, !tbaa !4
  %.not2 = icmp eq i8 %23, 6
  br i1 %.not2, label %28, label %24

24:                                               ; preds = %20
  %25 = call ptr @zend_zval_value_name(ptr noundef nonnull %21) #16
  call void (i32, ptr, ...) @zend_argument_type_error(i32 noundef 2, ptr noundef nonnull @.str.24, ptr noundef %25) #16
  %26 = load ptr, ptr getelementptr inbounds nuw (i8, ptr @executor_globals, i64 960), align 8, !tbaa !47
  %27 = icmp ne ptr %26, null
  call void @llvm.assume(i1 %27)
  br label %35

28:                                               ; preds = %20
  %29 = load ptr, ptr %13, align 8, !tbaa !4
  %30 = load ptr, ptr %21, align 8, !tbaa !4
  %31 = call i32 @php_safe_bcmp(ptr noundef %29, ptr noundef %30) #16
  %32 = icmp eq i32 %31, 0
  %33 = select i1 %32, i32 3, i32 2
  %34 = getelementptr inbounds nuw i8, ptr %1, i64 8
  store i32 %33, ptr %34, align 8, !tbaa !4
  br label %35

35:                                               ; preds = %28, %24, %16, %9
  call void @llvm.lifetime.end.p0(i64 8, ptr nonnull %4) #16
  call void @llvm.lifetime.end.p0(i64 8, ptr nonnull %3) #16
  ret void
}